target datalayout = "e-m:e-p270:32:32-p271:32:32-p272:64:64-i64:64-i128:128-f80:128-n8:16:32:64-S128"
target triple = "x86_64-pc-linux-gnu"

%"class.gmx::ArrayRef" = type { %"struct.gmx::ArrayRefIter", %"struct.gmx::ArrayRefIter" }
%"struct.gmx::ArrayRefIter" = type { ptr }

; Function Attrs: mustprogress nounwind uwtable
define void @_Z16startGpuProfilerv() #0 {
  ret void
}

; Function Attrs: mustprogress nounwind uwtable
define void @_Z15stopGpuProfilerv() #0 {
  ret void
}

; Function Attrs: mustprogress nounwind uwtable
define void @_Z16resetGpuProfilerv() #0 {
  ret void
}

; Function Attrs: mustprogress nounwind uwtable
define noundef zeroext i1 @_Z18isHostMemoryPinnedPKv(ptr noundef %0) #0 {
  %2 = alloca ptr, align 8
  store ptr %0, ptr %2, align 8
  ret i1 false
}

; Function Attrs: mustprogress nounwind uwtable
define void @_Z35checkPendingDeviceErrorBetweenStepsv() #0 {
  ret void
}

; Function Attrs: mustprogress nounwind uwtable
define void @_Z24setupGpuDevicePeerAccessN3gmx8ArrayRefIKiEERKNS_8MDLoggerE(ptr %0, ptr %1, ptr noundef nonnull align 1 %2) #0 {
  %4 = alloca %"class.gmx::ArrayRef", align 8
  %5 = alloca ptr, align 8
  %6 = getelementptr inbounds { ptr, ptr }, ptr %4, i32 0, i32 0
  store ptr %0, ptr %6, align 8
  %7 = getelementptr inbounds { ptr, ptr }, ptr %4, i32 0, i32 1
  store ptr %1, ptr %7, align 8
  store ptr %2, ptr %5, align 8
  ret void
}


!llvm.module.flags = !{!0, !1, !2, !3, !4}

!0 = !{i32 1, !"wchar_size", i32 4}
!1 = !{i32 7, !"openmp", i32 51}
!2 = !{i32 8, !"PIC Level", i32 2}
!3 = !{i32 7, !"uwtable", i32 2}
!4 = !{i32 7, !"frame-pointer", i32 2}
